; Function Attrs: mustprogress uwtable
define void @_ZN12ByteViewText15mousePressEventEP11QMouseEvent(ptr noundef nonnull align 8 dereferenceable(328) %0, ptr noundef %1) unnamed_addr #0 align 2 personality ptr @__gxx_personality_v0 {
  %3 = getelementptr inbounds i8, ptr %0, i64 72
  %4 = load i64, ptr %3, align 8
  %5 = icmp eq i64 %4, 0
  %6 = icmp eq ptr %1, null
  %or.cond.not = or i1 %6, %5
  br i1 %or.cond.not, label %63, label %7

7:                                                ; preds = %2
  %8 = getelementptr inbounds i8, ptr %1, i64 64
  %9 = load i32, ptr %8, align 8
  %.not = icmp eq i32 %9, 1
  br i1 %.not, label %10, label %63

10:                                               ; preds = %7
  %11 = getelementptr inbounds i8, ptr %0, i64 164
  %12 = load i32, ptr %11, align 4
  %13 = icmp slt i32 %12, 0
  %14 = getelementptr inbounds i8, ptr %1, i64 48
  %15 = load ptr, ptr %14, align 8
  %16 = tail call { double, double } @_ZNK11QEventPoint8positionEv(ptr noundef nonnull align 8 dereferenceable(8) %15)
  %17 = extractvalue { double, double } %16, 0
  %18 = extractvalue { double, double } %16, 1
  %19 = tail call double @llvm.copysign.f64(double 5.000000e-01, double %17)
  %20 = fadd double %17, %19
  %21 = fptosi double %20 to i32
  %22 = tail call double @llvm.copysign.f64(double 5.000000e-01, double %18)
  %23 = fadd double %18, %22
  %24 = fptosi double %23 to i32
  %25 = tail call noundef ptr @_ZNK19QAbstractScrollArea17verticalScrollBarEv(ptr noundef nonnull align 8 dereferenceable(40) %0)
  %26 = tail call noundef i32 @_ZNK15QAbstractSlider5valueEv(ptr noundef nonnull align 8 dereferenceable(40) %25)
  %27 = getelementptr inbounds i8, ptr %0, i64 204
  %28 = load i32, ptr %27, align 4
  %29 = getelementptr inbounds i8, ptr %0, i64 196
  %30 = load i32, ptr %29, align 4
  %31 = tail call noundef ptr @_ZNK19QAbstractScrollArea19horizontalScrollBarEv(ptr noundef nonnull align 8 dereferenceable(40) %0)
  %32 = tail call noundef i32 @_ZNK15QAbstractSlider5valueEv(ptr noundef nonnull align 8 dereferenceable(40) %31)
  %33 = getelementptr inbounds i8, ptr %0, i64 200
  %34 = load i32, ptr %33, align 8
  %35 = mul i32 %34, %32
  %36 = add i32 %35, %21
  %37 = sext i32 %36 to i64
  %38 = getelementptr inbounds i8, ptr %0, i64 256
  %39 = load i64, ptr %38, align 8
  %40 = icmp ugt i64 %39, %37
  br i1 %40, label %_ZNK5QListIiE5valueExi.exit.i, label %_ZN12ByteViewText17byteOffsetAtPixelE6QPoint.exit

_ZNK5QListIiE5valueExi.exit.i:                    ; preds = %10
  %41 = getelementptr inbounds i8, ptr %0, i64 248
  %42 = load ptr, ptr %41, align 8
  %43 = getelementptr i32, ptr %42, i64 %37
  %44 = load i32, ptr %43, align 4
  %45 = icmp slt i32 %44, 0
  br i1 %45, label %_ZN12ByteViewText17byteOffsetAtPixelE6QPoint.exit, label %46

46:                                               ; preds = %_ZNK5QListIiE5valueExi.exit.i
  %47 = sdiv i32 %24, %28
  %48 = add i32 %47, %26
  %49 = mul i32 %48, %30
  %50 = add i32 %49, %44
  %51 = sext i32 %50 to i64
  %52 = load i64, ptr %3, align 8
  %53 = icmp slt i64 %52, %51
  %..i = select i1 %53, i32 -1, i32 %50
  br label %_ZN12ByteViewText17byteOffsetAtPixelE6QPoint.exit

_ZN12ByteViewText17byteOffsetAtPixelE6QPoint.exit: ; preds = %10, %_ZNK5QListIiE5valueExi.exit.i, %46
  %.0.i = phi i32 [ -1, %_ZNK5QListIiE5valueExi.exit.i ], [ %..i, %46 ], [ -1, %10 ]
  tail call void @_ZN7QWidget17setUpdatesEnabledEb(ptr noundef nonnull align 8 dereferenceable(40) %0, i1 noundef zeroext false)
  tail call void @_ZN12ByteViewText12byteSelectedEi(ptr noundef nonnull align 8 dereferenceable(328) %0, i32 noundef %.0.i)
  %54 = icmp sgt i32 %.0.i, -1
  %or.cond3 = and i1 %13, %54
  br i1 %or.cond3, label %55, label %58

55:                                               ; preds = %_ZN12ByteViewText17byteOffsetAtPixelE6QPoint.exit
  %56 = getelementptr inbounds i8, ptr %0, i64 160
  store i32 -1, ptr %56, align 8
  store i32 %.0.i, ptr %11, align 4
  %57 = tail call noundef ptr @_ZNK19QAbstractScrollArea8viewportEv(ptr noundef nonnull align 8 dereferenceable(40) %0)
  tail call void @_ZN7QWidget6updateEv(ptr noundef nonnull align 8 dereferenceable(40) %57)
  br label %62

58:                                               ; preds = %_ZN12ByteViewText17byteOffsetAtPixelE6QPoint.exit
  %59 = load ptr, ptr %0, align 8
  %60 = getelementptr inbounds i8, ptr %59, i64 176
  %61 = load ptr, ptr %60, align 8
  tail call void %61(ptr noundef nonnull align 8 dereferenceable(328) %0, ptr noundef nonnull %1)
  br label %62

62:                                               ; preds = %58, %55
  tail call void @_ZN7QWidget17setUpdatesEnabledEb(ptr noundef nonnull align 8 dereferenceable(40) %0, i1 noundef zeroext true)
  br label %63

63:                                               ; preds = %2, %7, %62
  ret void
}